; Function Attrs: mustprogress uwtable
define dso_local void @_ZN4pbrt15ParsedParameter9AddStringESt17basic_string_viewIcSt11char_traitsIcEE(ptr noundef nonnull align 8 dereferenceable(233) %this, i64 %str.coerce0, ptr %str.coerce1) local_unnamed_addr #3 align 2 personality ptr @__gxx_personality_v0 {
entry:
  %ref.tmp = alloca %"class.std::__cxx11::basic_string", align 8
  %ref.tmp7 = alloca %"class.std::allocator", align 1
  %nStored.i.i = getelementptr inbounds i8, ptr %this, i64 112
  %0 = load i64, ptr %nStored.i.i, align 8
  %cmp.i = icmp eq i64 %0, 0
  %nStored.i.i2 = getelementptr inbounds i8, ptr %this, i64 144
  %1 = load i64, ptr %nStored.i.i2, align 8
  %cmp.i3 = icmp eq i64 %1, 0
  %or.cond = select i1 %cmp.i, i1 %cmp.i3, i1 false
  %nStored.i.i4 = getelementptr inbounds i8, ptr %this, i64 208
  %2 = load i64, ptr %nStored.i.i4, align 8
  %cmp.i5 = icmp eq i64 %2, 0
  %or.cond9 = select i1 %or.cond, i1 %cmp.i5, i1 false
  br i1 %or.cond9, label %land.end, label %land.rhs

land.rhs:                                         ; preds = %entry
  tail call void @_ZN4pbrt8LogFatalIJRA48_KcEEEvNS_8LogLevelEPS1_iS5_DpOT_(i32 noundef 2, ptr noundef nonnull @.str, i32 noundef 58, ptr noundef nonnull @.str.6, ptr noundef nonnull align 1 dereferenceable(48) @.str.9) #31
  unreachable

land.end:                                         ; preds = %entry
  %add.ptr.i = getelementptr inbounds i8, ptr %str.coerce1, i64 %str.coerce0
  call void @_ZNSaIcEC1Ev(ptr noundef nonnull align 1 dereferenceable(1) %ref.tmp7) #32
  %call.i7 = invoke noundef ptr @_ZNSt7__cxx1112basic_stringIcSt11char_traitsIcESaIcEE13_M_local_dataEv(ptr noundef nonnull align 8 dereferenceable(32) %ref.tmp)
          to label %call.i.noexc unwind label %lpad

call.i.noexc:                                     ; preds = %land.end
  invoke void @_ZNSt7__cxx1112basic_stringIcSt11char_traitsIcESaIcEE12_Alloc_hiderC1EPcRKS3_(ptr noundef nonnull align 8 dereferenceable(8) %ref.tmp, ptr noundef %call.i7, ptr noundef nonnull align 1 dereferenceable(1) %ref.tmp7)
          to label %.noexc unwind label %lpad

.noexc:                                           ; preds = %call.i.noexc
  %_M_string_length.i = getelementptr inbounds i8, ptr %ref.tmp, i64 8
  store i64 0, ptr %_M_string_length.i, align 8
  invoke void @_ZNSt7__cxx1112basic_stringIcSt11char_traitsIcESaIcEE12_M_constructIPKcEEvT_S8_St20forward_iterator_tag(ptr noundef nonnull align 8 dereferenceable(32) %ref.tmp, ptr noundef %str.coerce1, ptr noundef %add.ptr.i)
          to label %invoke.cont unwind label %lpad.i

lpad.i:                                           ; preds = %.noexc
  %3 = landingpad { ptr, i32 }
          cleanup
  call void @_ZNSaIcED2Ev(ptr noundef nonnull align 1 dereferenceable(1) %ref.tmp) #32
  br label %ehcleanup

invoke.cont:                                      ; preds = %.noexc
  %strings = getelementptr inbounds i8, ptr %this, i64 152
  invoke void @_ZN4pstd6vectorINSt7__cxx1112basic_stringIcSt11char_traitsIcESaIcEEENS_3pmr21polymorphic_allocatorIS6_EEE9push_backEOS6_(ptr noundef nonnull align 8 dereferenceable(32) %strings, ptr noundef nonnull align 8 dereferenceable(32) %ref.tmp)
          to label %invoke.cont9 unwind label %lpad8

invoke.cont9:                                     ; preds = %invoke.cont
  call void @_ZNSt7__cxx1112basic_stringIcSt11char_traitsIcESaIcEED1Ev(ptr noundef nonnull align 8 dereferenceable(32) %ref.tmp) #32
  call void @_ZNSaIcED1Ev(ptr noundef nonnull align 1 dereferenceable(1) %ref.tmp7) #32
  ret void

lpad:                                             ; preds = %call.i.noexc, %land.end
  %4 = landingpad { ptr, i32 }
          cleanup
  br label %ehcleanup

lpad8:                                            ; preds = %invoke.cont
  %5 = landingpad { ptr, i32 }
          cleanup
  call void @_ZNSt7__cxx1112basic_stringIcSt11char_traitsIcESaIcEED1Ev(ptr noundef nonnull align 8 dereferenceable(32) %ref.tmp) #32
  br label %ehcleanup

ehcleanup:                                        ; preds = %lpad, %lpad.i, %lpad8
  %.pn = phi { ptr, i32 } [ %5, %lpad8 ], [ %4, %lpad ], [ %3, %lpad.i ]
  call void @_ZNSaIcED1Ev(ptr noundef nonnull align 1 dereferenceable(1) %ref.tmp7) #32
  resume { ptr, i32 } %.pn
}